(dp0
S'BL_Lac'
p1
(lp2
F330.68
aF42.278
aF2.505783275167688e-06
aF5.240152061745208e-07
asS'Crab_Pulsar'
p3
(lp4
F83.633
aF22.014
aF5.606782691710296e-06
aF1.951859480783795e-07
asS'3C_279'
p5
(lp6
F194.047
aF-5.789
aF3.258429788487491e-05
aF9.678562014699444e-06
asS'PKS_2032p107'
p7
(lp8
F308.843
aF10.935
aF3.077730269720359e-06
aF5.610704814477015e-07
asS'PKS_0528p134'
p9
(lp10
F82.735
aF13.532
aF1.2433187160496282e-06
aF1.3467602541435927e-07
asS'0FGL_J0910d2-5044'
p11
(lp12
F137.568
aF-50.743
aF2.565196449205276e-06
aF1.4155017651014674e-07
asS'PKS_0903-57'
p13
(lp14
F136.222
aF-57.585
aF3.0762532182341356e-06
aF7.62277851942959e-07
asS'3C_454d3'
p15
(lp16
F343.491
aF16.148
aF5.2698542619618865e-06
aF6.700791153270729e-07
asS'CGRaBS_J1849p6705'
p17
(lp18
F282.317
aF67.095
aF1.209026449231557e-06
aF2.3913785793900386e-07
asS'ON_246'
p19
(lp20
F187.559
aF25.302
aF1.172706303506408e-06
aF2.9018824208730793e-07
as.